; Function Attrs: null_pointer_is_valid sspstrong uwtable
define internal i32 @dissect_mbtcp(ptr noundef %0, ptr noundef %1, ptr noundef %2, ptr noundef %3) #0 {
  %5 = tail call zeroext i1 @tvb_bytes_exist(ptr noundef %0, i32 noundef 0, i32 noundef 8)
  br i1 %5, label %6, label %dissect_mbtcp_common.exit

6:                                                ; preds = %4
  %7 = tail call zeroext i16 @tvb_get_ntohs(ptr noundef %0, i32 noundef 2)
  %.not.i = icmp eq i16 %7, 0
  br i1 %.not.i, label %8, label %dissect_mbtcp_common.exit

8:                                                ; preds = %6
  %9 = tail call zeroext i16 @tvb_get_ntohs(ptr noundef %0, i32 noundef 4)
  %10 = icmp ult i16 %9, 2
  br i1 %10, label %dissect_mbtcp_common.exit, label %11

11:                                               ; preds = %8
  %12 = load i8, ptr @mbtcp_desegment, align 1, !range !6, !noundef !7
  %13 = trunc nuw i8 %12 to i1
  tail call void @tcp_dissect_pdus(ptr noundef %0, ptr noundef %1, ptr noundef %2, i1 noundef zeroext %13, i32 noundef 6, ptr noundef nonnull @get_mbtcp_pdu_len, ptr noundef nonnull @dissect_mbtcp_pdu, ptr noundef %3)
  %14 = tail call i32 @tvb_captured_length(ptr noundef %0)
  br label %dissect_mbtcp_common.exit

dissect_mbtcp_common.exit:                        ; preds = %4, %6, %8, %11
  %.0.i = phi i32 [ %14, %11 ], [ 0, %4 ], [ 0, %6 ], [ 0, %8 ]
  ret i32 %.0.i
}